target datalayout = "e-m:e-p270:32:32-p271:32:32-p272:64:64-i64:64-i128:128-f80:128-n8:16:32:64-S128"
target triple = "x86_64-pc-linux-gnu"

@.str.10 = private unnamed_addr constant [62 x i8] c"backup manifest version 1 does not support incremental backup\00", align 1

; Function Attrs: nounwind uwtable
define internal void @combinebackup_version_cb(ptr noundef %0, i32 noundef %1) #0 {
  %3 = alloca ptr, align 8
  %4 = alloca i32, align 4
  store ptr %0, ptr %3, align 8
  store i32 %1, ptr %4, align 4
  %5 = load i32, ptr %4, align 4
  %6 = icmp eq i32 %5, 1
  br i1 %6, label %7, label %10

7:                                                ; preds = %2
  br label %8

8:                                                ; preds = %7
  call void (i32, i32, ptr, ...) @pg_log_generic(i32 noundef 4, i32 noundef 0, ptr noundef @.str.10)
  call void @exit(i32 noundef 1) #15
  unreachable

9:                                                ; No predecessors!
  br label %10

10:                                               ; preds = %9, %2
  ret void
}