; Function Attrs: nounwind uwtable
define internal void @combinebackup_version_cb(ptr readnone captures(none) %0, i32 noundef %1) #0 {
  %3 = icmp eq i32 %1, 1
  br i1 %3, label %4, label %5

4:                                                ; preds = %2
  tail call void (i32, i32, ptr, ...) @pg_log_generic(i32 noundef 4, i32 noundef 0, ptr noundef nonnull @.str.10) #22
  tail call void @exit(i32 noundef 1) #23
  unreachable

5:                                                ; preds = %2
  ret void
}